; Function Attrs: mustprogress uwtable
define void @_ZN32pxrInternal_v0_24__pxrReserved__17UsdGeomXformCache24GetLocalToWorldTransformERKNS_7UsdPrimE(ptr dead_on_unwind noalias writable writeonly sret(%"class.pxrInternal_v0_24__pxrReserved__::GfMatrix4d") align 8 captures(none) %0, ptr noundef nonnull align 8 dereferenceable(64) %1, ptr noundef nonnull align 8 dereferenceable(32) %2) local_unnamed_addr #2 align 2 personality ptr @__gxx_personality_v0 {
  %4 = alloca %"class.pxrInternal_v0_24__pxrReserved__::TraceKey", align 8
  %5 = alloca %"class.pxrInternal_v0_24__pxrReserved__::TraceKey", align 8
  %6 = load atomic i32, ptr @_ZN32pxrInternal_v0_24__pxrReserved__14TraceCollector10_isEnabledE acquire, align 4
  %7 = icmp eq i32 %6, 1
  br i1 %7, label %8, label %_ZN32pxrInternal_v0_24__pxrReserved__14TraceScopeAutoC2ERKNS_18TraceStaticKeyDataE.exit

8:                                                ; preds = %3
  fence syncscope("singlethread") seq_cst
  %9 = tail call { i32, i32 } asm sideeffect "lfence\0A\09rdtsc\0A\09lfence", "={ax},={dx},~{dirflag},~{fpsr},~{flags}"() #16, !srcloc !4
  %10 = extractvalue { i32, i32 } %9, 0
  %11 = extractvalue { i32, i32 } %9, 1
  %12 = zext i32 %11 to i64
  %13 = shl nuw i64 %12, 32
  %14 = zext i32 %10 to i64
  br label %_ZN32pxrInternal_v0_24__pxrReserved__14TraceScopeAutoC2ERKNS_18TraceStaticKeyDataE.exit

_ZN32pxrInternal_v0_24__pxrReserved__14TraceScopeAutoC2ERKNS_18TraceStaticKeyDataE.exit: ; preds = %3, %8
  %.sroa.7.0 = phi i64 [ %14, %8 ], [ 0, %3 ]
  %.sroa.11.0 = phi i64 [ %13, %8 ], [ 0, %3 ]
  %15 = invoke noundef ptr @_ZN32pxrInternal_v0_24__pxrReserved__17UsdGeomXformCache7_GetCtmERKNS_7UsdPrimE(ptr noundef nonnull align 8 dereferenceable(64) %1, ptr noundef nonnull align 8 dereferenceable(32) %2)
          to label %16 unwind label %19

16:                                               ; preds = %_ZN32pxrInternal_v0_24__pxrReserved__14TraceScopeAutoC2ERKNS_18TraceStaticKeyDataE.exit
  tail call void @llvm.memcpy.p0.p0.i64(ptr noundef nonnull align 8 dereferenceable(128) %0, ptr noundef nonnull align 8 dereferenceable(128) %15, i64 128, i1 false)
  call void @llvm.lifetime.start.p0(i64 8, ptr nonnull %5)
  br i1 %7, label %17, label %_ZN32pxrInternal_v0_24__pxrReserved__14TraceScopeAutoD2Ev.exit

17:                                               ; preds = %16
  fence syncscope("singlethread") seq_cst
  %18 = tail call noundef i64 asm sideeffect "rdtscp\0A\09shl $$32, %rdx\0A\09or %rdx, $0\0A\09lfence", "={ax},~{rcx},~{rdx},~{cc},~{dirflag},~{fpsr},~{flags}"() #16, !srcloc !5
  store ptr @_ZZN32pxrInternal_v0_24__pxrReserved__17UsdGeomXformCache24GetLocalToWorldTransformERKNS_7UsdPrimEE15TraceKeyData_32, ptr %5, align 8
  %.sroa.7.12.insert.insert = or disjoint i64 %.sroa.11.0, %.sroa.7.0
  call void @_ZN32pxrInternal_v0_24__pxrReserved__14TraceCollector5ScopeERKNS_8TraceKeyEmm(ptr noundef nonnull align 8 dereferenceable(8) %5, i64 noundef %.sroa.7.12.insert.insert, i64 noundef %18) #16
  br label %_ZN32pxrInternal_v0_24__pxrReserved__14TraceScopeAutoD2Ev.exit

_ZN32pxrInternal_v0_24__pxrReserved__14TraceScopeAutoD2Ev.exit: ; preds = %16, %17
  call void @llvm.lifetime.end.p0(i64 8, ptr nonnull %5)
  ret void

19:                                               ; preds = %_ZN32pxrInternal_v0_24__pxrReserved__14TraceScopeAutoC2ERKNS_18TraceStaticKeyDataE.exit
  %20 = landingpad { ptr, i32 }
          cleanup
  call void @llvm.lifetime.start.p0(i64 8, ptr nonnull %4)
  br i1 %7, label %21, label %_ZN32pxrInternal_v0_24__pxrReserved__14TraceScopeAutoD2Ev.exit3

21:                                               ; preds = %19
  fence syncscope("singlethread") seq_cst
  %22 = tail call noundef i64 asm sideeffect "rdtscp\0A\09shl $$32, %rdx\0A\09or %rdx, $0\0A\09lfence", "={ax},~{rcx},~{rdx},~{cc},~{dirflag},~{fpsr},~{flags}"() #16, !srcloc !5
  store ptr @_ZZN32pxrInternal_v0_24__pxrReserved__17UsdGeomXformCache24GetLocalToWorldTransformERKNS_7UsdPrimEE15TraceKeyData_32, ptr %4, align 8
  %.sroa.7.12.insert.insert9 = or disjoint i64 %.sroa.11.0, %.sroa.7.0
  call void @_ZN32pxrInternal_v0_24__pxrReserved__14TraceCollector5ScopeERKNS_8TraceKeyEmm(ptr noundef nonnull align 8 dereferenceable(8) %4, i64 noundef %.sroa.7.12.insert.insert9, i64 noundef %22) #16
  br label %_ZN32pxrInternal_v0_24__pxrReserved__14TraceScopeAutoD2Ev.exit3

_ZN32pxrInternal_v0_24__pxrReserved__14TraceScopeAutoD2Ev.exit3: ; preds = %19, %21
  call void @llvm.lifetime.end.p0(i64 8, ptr nonnull %4)
  resume { ptr, i32 } %20
}